target datalayout = "e-m:e-p270:32:32-p271:32:32-p272:64:64-i64:64-i128:128-f80:128-n8:16:32:64-S128"
target triple = "x86_64-pc-linux-gnu"

%struct.message = type { ptr, i32, i32, ptr, ptr, ptr, ptr, ptr, ptr, i64, i32, ptr, ptr, ptr, ptr, ptr, i8, i8, i8, i8, ptr }
%struct.text = type { ptr, ptr }

@.str.51 = private unnamed_addr constant [77 x i8] c"Internal email parser error: invalid arguments when adding line to message.\0A\00", align 1
@.str.52 = private unnamed_addr constant [48 x i8] c"messageAddLine: out of memory for m->body_last\0A\00", align 1

; Function Attrs: nounwind uwtable
define i32 @messageAddLine(ptr noundef %0, ptr noundef %1) #0 {
  %3 = alloca i32, align 4
  %4 = alloca ptr, align 8
  %5 = alloca ptr, align 8
  store ptr %0, ptr %4, align 8
  store ptr %1, ptr %5, align 8
  %6 = load ptr, ptr %4, align 8
  %7 = icmp eq ptr %6, null
  br i1 %7, label %8, label %9

8:                                                ; preds = %2
  call void (ptr, ...) @cli_errmsg(ptr noundef @.str.51)
  store i32 -1, ptr %3, align 4
  br label %64

9:                                                ; preds = %2
  %10 = load ptr, ptr %4, align 8
  %11 = getelementptr inbounds %struct.message, ptr %10, i32 0, i32 6
  %12 = load ptr, ptr %11, align 8
  %13 = icmp eq ptr %12, null
  br i1 %13, label %14, label %20

14:                                               ; preds = %9
  %15 = call noalias ptr @malloc(i64 noundef 16) #14
  %16 = load ptr, ptr %4, align 8
  %17 = getelementptr inbounds %struct.message, ptr %16, i32 0, i32 6
  store ptr %15, ptr %17, align 8
  %18 = load ptr, ptr %4, align 8
  %19 = getelementptr inbounds %struct.message, ptr %18, i32 0, i32 7
  store ptr %15, ptr %19, align 8
  br label %33

20:                                               ; preds = %9
  %21 = call noalias ptr @malloc(i64 noundef 16) #14
  %22 = load ptr, ptr %4, align 8
  %23 = getelementptr inbounds %struct.message, ptr %22, i32 0, i32 7
  %24 = load ptr, ptr %23, align 8
  %25 = getelementptr inbounds %struct.text, ptr %24, i32 0, i32 1
  store ptr %21, ptr %25, align 8
  %26 = load ptr, ptr %4, align 8
  %27 = getelementptr inbounds %struct.message, ptr %26, i32 0, i32 7
  %28 = load ptr, ptr %27, align 8
  %29 = getelementptr inbounds %struct.text, ptr %28, i32 0, i32 1
  %30 = load ptr, ptr %29, align 8
  %31 = load ptr, ptr %4, align 8
  %32 = getelementptr inbounds %struct.message, ptr %31, i32 0, i32 7
  store ptr %30, ptr %32, align 8
  br label %33

33:                                               ; preds = %20, %14
  %34 = load ptr, ptr %4, align 8
  %35 = getelementptr inbounds %struct.message, ptr %34, i32 0, i32 7
  %36 = load ptr, ptr %35, align 8
  %37 = icmp eq ptr %36, null
  br i1 %37, label %38, label %39

38:                                               ; preds = %33
  call void (ptr, ...) @cli_errmsg(ptr noundef @.str.52)
  store i32 -1, ptr %3, align 4
  br label %64

39:                                               ; preds = %33
  %40 = load ptr, ptr %4, align 8
  %41 = getelementptr inbounds %struct.message, ptr %40, i32 0, i32 7
  %42 = load ptr, ptr %41, align 8
  %43 = getelementptr inbounds %struct.text, ptr %42, i32 0, i32 1
  store ptr null, ptr %43, align 8
  %44 = load ptr, ptr %5, align 8
  %45 = icmp ne ptr %44, null
  br i1 %45, label %46, label %58

46:                                               ; preds = %39
  %47 = load ptr, ptr %5, align 8
  %48 = call ptr @lineGetData(ptr noundef %47)
  %49 = icmp ne ptr %48, null
  br i1 %49, label %50, label %58

50:                                               ; preds = %46
  %51 = load ptr, ptr %5, align 8
  %52 = call ptr @lineLink(ptr noundef %51)
  %53 = load ptr, ptr %4, align 8
  %54 = getelementptr inbounds %struct.message, ptr %53, i32 0, i32 7
  %55 = load ptr, ptr %54, align 8
  %56 = getelementptr inbounds %struct.text, ptr %55, i32 0, i32 0
  store ptr %52, ptr %56, align 8
  %57 = load ptr, ptr %4, align 8
  call void @messageIsEncoding(ptr noundef %57)
  br label %63

58:                                               ; preds = %46, %39
  %59 = load ptr, ptr %4, align 8
  %60 = getelementptr inbounds %struct.message, ptr %59, i32 0, i32 7
  %61 = load ptr, ptr %60, align 8
  %62 = getelementptr inbounds %struct.text, ptr %61, i32 0, i32 0
  store ptr null, ptr %62, align 8
  br label %63

63:                                               ; preds = %58, %50
  store i32 1, ptr %3, align 4
  br label %64

64:                                               ; preds = %63, %38, %8
  %65 = load i32, ptr %3, align 4
  ret i32 %65
}