; Function Attrs: nounwind uwtable
define noundef i32 @messageAddLine(ptr noundef %0, ptr noundef %1) local_unnamed_addr #2 {
  %3 = icmp eq ptr %0, null
  br i1 %3, label %4, label %5

4:                                                ; preds = %2
  tail call void (ptr, ...) @cli_errmsg(ptr noundef nonnull @.str.51) #21
  br label %33

5:                                                ; preds = %2
  %6 = getelementptr inbounds i8, ptr %0, i64 40
  %7 = load ptr, ptr %6, align 8
  %8 = icmp eq ptr %7, null
  %9 = tail call noalias dereferenceable_or_null(16) ptr @malloc(i64 noundef 16) #24
  br i1 %8, label %10, label %12

10:                                               ; preds = %5
  store ptr %9, ptr %6, align 8
  %11 = getelementptr inbounds i8, ptr %0, i64 48
  store ptr %9, ptr %11, align 8
  br label %19

12:                                               ; preds = %5
  %13 = getelementptr inbounds i8, ptr %0, i64 48
  %14 = load ptr, ptr %13, align 8
  %15 = getelementptr inbounds i8, ptr %14, i64 8
  store ptr %9, ptr %15, align 8
  %16 = load ptr, ptr %13, align 8
  %17 = getelementptr inbounds i8, ptr %16, i64 8
  %18 = load ptr, ptr %17, align 8
  store ptr %18, ptr %13, align 8
  br label %19

19:                                               ; preds = %12, %10
  %20 = phi ptr [ %18, %12 ], [ %9, %10 ]
  %21 = getelementptr inbounds i8, ptr %0, i64 48
  %22 = icmp eq ptr %20, null
  br i1 %22, label %23, label %24

23:                                               ; preds = %19
  tail call void (ptr, ...) @cli_errmsg(ptr noundef nonnull @.str.52) #21
  br label %33

24:                                               ; preds = %19
  %25 = getelementptr inbounds i8, ptr %20, i64 8
  store ptr null, ptr %25, align 8
  %.not = icmp eq ptr %1, null
  br i1 %.not, label %31, label %26

26:                                               ; preds = %24
  %27 = tail call ptr @lineGetData(ptr noundef nonnull %1) #21
  %.not18 = icmp eq ptr %27, null
  br i1 %.not18, label %31, label %28

28:                                               ; preds = %26
  %29 = tail call ptr @lineLink(ptr noundef nonnull %1) #21
  %30 = load ptr, ptr %21, align 8
  store ptr %29, ptr %30, align 8
  tail call fastcc void @messageIsEncoding(ptr noundef nonnull %0)
  br label %33

31:                                               ; preds = %26, %24
  %32 = load ptr, ptr %21, align 8
  store ptr null, ptr %32, align 8
  br label %33

33:                                               ; preds = %28, %31, %23, %4
  %.0 = phi i32 [ -1, %4 ], [ -1, %23 ], [ 1, %31 ], [ 1, %28 ]
  ret i32 %.0
}